target datalayout = "e-m:e-p270:32:32-p271:32:32-p272:64:64-i64:64-i128:128-f80:128-n8:16:32:64-S128"
target triple = "x86_64-pc-linux-gnu"

; Function Attrs: alwaysinline nounwind willreturn memory(none) uwtable
define internal zeroext i8 @av_clip_uint8_c(i32 noundef %0) #5 {
  %2 = alloca i8, align 1
  %3 = alloca i32, align 4
  store i32 %0, ptr %3, align 4, !tbaa !38
  %4 = load i32, ptr %3, align 4, !tbaa !38
  %5 = and i32 %4, -256
  %6 = icmp ne i32 %5, 0
  br i1 %6, label %7, label %12

7:                                                ; preds = %1
  %8 = load i32, ptr %3, align 4, !tbaa !38
  %9 = xor i32 %8, -1
  %10 = ashr i32 %9, 31
  %11 = trunc i32 %10 to i8
  store i8 %11, ptr %2, align 1
  br label %15

12:                                               ; preds = %1
  %13 = load i32, ptr %3, align 4, !tbaa !38
  %14 = trunc i32 %13 to i8
  store i8 %14, ptr %2, align 1
  br label %15

15:                                               ; preds = %12, %7
  %16 = load i8, ptr %2, align 1
  ret i8 %16
}

; Function Attrs: nounwind uwtable
define internal void @vc1_h_overlap_c(ptr noundef %0, i64 noundef %1) #1 {
  %3 = alloca ptr, align 8
  %4 = alloca i64, align 8
  %5 = alloca i32, align 4
  %6 = alloca i32, align 4
  %7 = alloca i32, align 4
  %8 = alloca i32, align 4
  %9 = alloca i32, align 4
  %10 = alloca i32, align 4
  %11 = alloca i32, align 4
  %12 = alloca i32, align 4
  store ptr %0, ptr %3, align 8, !tbaa !45
  store i64 %1, ptr %4, align 8, !tbaa !47
  call void @llvm.lifetime.start.p0(i64 4, ptr %5) #7
  call void @llvm.lifetime.start.p0(i64 4, ptr %6) #7
  call void @llvm.lifetime.start.p0(i64 4, ptr %7) #7
  call void @llvm.lifetime.start.p0(i64 4, ptr %8) #7
  call void @llvm.lifetime.start.p0(i64 4, ptr %9) #7
  call void @llvm.lifetime.start.p0(i64 4, ptr %10) #7
  call void @llvm.lifetime.start.p0(i64 4, ptr %11) #7
  call void @llvm.lifetime.start.p0(i64 4, ptr %12) #7
  store i32 1, ptr %12, align 4, !tbaa !38
  store i32 0, ptr %5, align 4, !tbaa !38
  br label %13

13:                                               ; preds = %82, %2
  %14 = load i32, ptr %5, align 4, !tbaa !38
  %15 = icmp slt i32 %14, 8
  br i1 %15, label %16, label %85

16:                                               ; preds = %13
  %17 = load ptr, ptr %3, align 8, !tbaa !45
  %18 = getelementptr inbounds i8, ptr %17, i64 -2
  %19 = load i8, ptr %18, align 1, !tbaa !50
  %20 = zext i8 %19 to i32
  store i32 %20, ptr %6, align 4, !tbaa !38
  %21 = load ptr, ptr %3, align 8, !tbaa !45
  %22 = getelementptr inbounds i8, ptr %21, i64 -1
  %23 = load i8, ptr %22, align 1, !tbaa !50
  %24 = zext i8 %23 to i32
  store i32 %24, ptr %7, align 4, !tbaa !38
  %25 = load ptr, ptr %3, align 8, !tbaa !45
  %26 = getelementptr inbounds i8, ptr %25, i64 0
  %27 = load i8, ptr %26, align 1, !tbaa !50
  %28 = zext i8 %27 to i32
  store i32 %28, ptr %8, align 4, !tbaa !38
  %29 = load ptr, ptr %3, align 8, !tbaa !45
  %30 = getelementptr inbounds i8, ptr %29, i64 1
  %31 = load i8, ptr %30, align 1, !tbaa !50
  %32 = zext i8 %31 to i32
  store i32 %32, ptr %9, align 4, !tbaa !38
  %33 = load i32, ptr %6, align 4, !tbaa !38
  %34 = load i32, ptr %9, align 4, !tbaa !38
  %35 = sub nsw i32 %33, %34
  %36 = add nsw i32 %35, 3
  %37 = load i32, ptr %12, align 4, !tbaa !38
  %38 = add nsw i32 %36, %37
  %39 = ashr i32 %38, 3
  store i32 %39, ptr %10, align 4, !tbaa !38
  %40 = load i32, ptr %6, align 4, !tbaa !38
  %41 = load i32, ptr %9, align 4, !tbaa !38
  %42 = sub nsw i32 %40, %41
  %43 = load i32, ptr %7, align 4, !tbaa !38
  %44 = add nsw i32 %42, %43
  %45 = load i32, ptr %8, align 4, !tbaa !38
  %46 = sub nsw i32 %44, %45
  %47 = add nsw i32 %46, 4
  %48 = load i32, ptr %12, align 4, !tbaa !38
  %49 = sub nsw i32 %47, %48
  %50 = ashr i32 %49, 3
  store i32 %50, ptr %11, align 4, !tbaa !38
  %51 = load i32, ptr %6, align 4, !tbaa !38
  %52 = load i32, ptr %10, align 4, !tbaa !38
  %53 = sub nsw i32 %51, %52
  %54 = trunc i32 %53 to i8
  %55 = load ptr, ptr %3, align 8, !tbaa !45
  %56 = getelementptr inbounds i8, ptr %55, i64 -2
  store i8 %54, ptr %56, align 1, !tbaa !50
  %57 = load i32, ptr %7, align 4, !tbaa !38
  %58 = load i32, ptr %11, align 4, !tbaa !38
  %59 = sub nsw i32 %57, %58
  %60 = call zeroext i8 @av_clip_uint8_c(i32 noundef %59) #8
  %61 = load ptr, ptr %3, align 8, !tbaa !45
  %62 = getelementptr inbounds i8, ptr %61, i64 -1
  store i8 %60, ptr %62, align 1, !tbaa !50
  %63 = load i32, ptr %8, align 4, !tbaa !38
  %64 = load i32, ptr %11, align 4, !tbaa !38
  %65 = add nsw i32 %63, %64
  %66 = call zeroext i8 @av_clip_uint8_c(i32 noundef %65) #8
  %67 = load ptr, ptr %3, align 8, !tbaa !45
  %68 = getelementptr inbounds i8, ptr %67, i64 0
  store i8 %66, ptr %68, align 1, !tbaa !50
  %69 = load i32, ptr %9, align 4, !tbaa !38
  %70 = load i32, ptr %10, align 4, !tbaa !38
  %71 = add nsw i32 %69, %70
  %72 = trunc i32 %71 to i8
  %73 = load ptr, ptr %3, align 8, !tbaa !45
  %74 = getelementptr inbounds i8, ptr %73, i64 1
  store i8 %72, ptr %74, align 1, !tbaa !50
  %75 = load i64, ptr %4, align 8, !tbaa !47
  %76 = load ptr, ptr %3, align 8, !tbaa !45
  %77 = getelementptr inbounds i8, ptr %76, i64 %75
  store ptr %77, ptr %3, align 8, !tbaa !45
  %78 = load i32, ptr %12, align 4, !tbaa !38
  %79 = icmp ne i32 %78, 0
  %80 = xor i1 %79, true
  %81 = zext i1 %80 to i32
  store i32 %81, ptr %12, align 4, !tbaa !38
  br label %82

82:                                               ; preds = %16
  %83 = load i32, ptr %5, align 4, !tbaa !38
  %84 = add nsw i32 %83, 1
  store i32 %84, ptr %5, align 4, !tbaa !38
  br label %13, !llvm.loop !60

85:                                               ; preds = %13
  call void @llvm.lifetime.end.p0(i64 4, ptr %12) #7
  call void @llvm.lifetime.end.p0(i64 4, ptr %11) #7
  call void @llvm.lifetime.end.p0(i64 4, ptr %10) #7
  call void @llvm.lifetime.end.p0(i64 4, ptr %9) #7
  call void @llvm.lifetime.end.p0(i64 4, ptr %8) #7
  call void @llvm.lifetime.end.p0(i64 4, ptr %7) #7
  call void @llvm.lifetime.end.p0(i64 4, ptr %6) #7
  call void @llvm.lifetime.end.p0(i64 4, ptr %5) #7
  ret void
}