; Function Attrs: nofree norecurse nosync nounwind memory(argmem: readwrite) uwtable
define internal void @vc1_h_overlap_c(ptr noundef captures(none) %0, i64 noundef %1) #1 {
.lver.check:
  %ident.check.not = icmp eq i64 %1, 1
  br i1 %ident.check.not, label %.ph, label %.ph.lver.orig

.ph.lver.orig:                                    ; preds = %.lver.check, %.ph.lver.orig
  %.036.lver.orig = phi i32 [ %32, %.ph.lver.orig ], [ 1, %.lver.check ]
  %.02835.lver.orig = phi ptr [ %31, %.ph.lver.orig ], [ %0, %.lver.check ]
  %.02934.lver.orig = phi i32 [ %33, %.ph.lver.orig ], [ 0, %.lver.check ]
  %2 = getelementptr inbounds i8, ptr %.02835.lver.orig, i64 -2
  %3 = load i8, ptr %2, align 1, !tbaa !40
  %4 = zext i8 %3 to i32
  %5 = getelementptr inbounds i8, ptr %.02835.lver.orig, i64 -1
  %6 = load i8, ptr %5, align 1, !tbaa !40
  %7 = zext i8 %6 to i32
  %8 = load i8, ptr %.02835.lver.orig, align 1, !tbaa !40
  %9 = zext i8 %8 to i32
  %10 = getelementptr inbounds nuw i8, ptr %.02835.lver.orig, i64 1
  %11 = load i8, ptr %10, align 1, !tbaa !40
  %12 = zext i8 %11 to i32
  %13 = sub nsw i32 %4, %12
  %14 = add nuw nsw i32 %.036.lver.orig, 3
  %15 = add nsw i32 %14, %13
  %16 = lshr i32 %15, 3
  %17 = add nuw nsw i32 %7, 4
  %18 = add nuw nsw i32 %.036.lver.orig, %9
  %19 = sub nsw i32 %17, %18
  %20 = add nsw i32 %19, %13
  %21 = ashr i32 %20, 3
  %22 = trunc i32 %16 to i8
  %23 = sub i8 %3, %22
  store i8 %23, ptr %2, align 1, !tbaa !40
  %24 = sub nsw i32 %7, %21
  %.not.i.lver.orig = icmp ult i32 %24, 256
  %isnotneg.i.lver.orig = icmp sgt i32 %24, -1
  %25 = sext i1 %isnotneg.i.lver.orig to i8
  %26 = trunc nuw i32 %24 to i8
  %.0.i.lver.orig = select i1 %.not.i.lver.orig, i8 %26, i8 %25
  store i8 %.0.i.lver.orig, ptr %5, align 1, !tbaa !40
  %27 = add nsw i32 %21, %9
  %.not.i30.lver.orig = icmp ult i32 %27, 256
  %isnotneg.i31.lver.orig = icmp sgt i32 %27, -1
  %28 = sext i1 %isnotneg.i31.lver.orig to i8
  %29 = trunc nuw i32 %27 to i8
  %.0.i32.lver.orig = select i1 %.not.i30.lver.orig, i8 %29, i8 %28
  store i8 %.0.i32.lver.orig, ptr %.02835.lver.orig, align 1, !tbaa !40
  %30 = add i8 %11, %22
  store i8 %30, ptr %10, align 1, !tbaa !40
  %31 = getelementptr inbounds i8, ptr %.02835.lver.orig, i64 %1
  %32 = xor i32 %.036.lver.orig, 1
  %33 = add nuw nsw i32 %.02934.lver.orig, 1
  %exitcond.not.lver.orig = icmp eq i32 %33, 8
  br i1 %exitcond.not.lver.orig, label %.loopexit, label %.ph.lver.orig, !llvm.loop !50

.ph:                                              ; preds = %.lver.check
  %load_initial = load i8, ptr %0, align 1
  br label %34

34:                                               ; preds = %.ph, %34
  %store_forwarded = phi i8 [ %load_initial, %.ph ], [ %62, %34 ]
  %.036 = phi i32 [ 1, %.ph ], [ %64, %34 ]
  %.02835 = phi ptr [ %0, %.ph ], [ %63, %34 ]
  %.02934 = phi i32 [ 0, %.ph ], [ %65, %34 ]
  %35 = getelementptr inbounds i8, ptr %.02835, i64 -2
  %36 = load i8, ptr %35, align 1, !tbaa !40
  %37 = zext i8 %36 to i32
  %38 = getelementptr inbounds i8, ptr %.02835, i64 -1
  %39 = load i8, ptr %38, align 1, !tbaa !40
  %40 = zext i8 %39 to i32
  %41 = zext i8 %store_forwarded to i32
  %42 = getelementptr inbounds nuw i8, ptr %.02835, i64 1
  %43 = load i8, ptr %42, align 1, !tbaa !40
  %44 = zext i8 %43 to i32
  %45 = sub nsw i32 %37, %44
  %46 = add nuw nsw i32 %.036, 3
  %47 = add nsw i32 %46, %45
  %48 = lshr i32 %47, 3
  %49 = add nuw nsw i32 %40, 4
  %50 = add nuw nsw i32 %.036, %41
  %51 = sub nsw i32 %49, %50
  %52 = add nsw i32 %51, %45
  %53 = ashr i32 %52, 3
  %54 = trunc i32 %48 to i8
  %55 = sub i8 %36, %54
  store i8 %55, ptr %35, align 1, !tbaa !40
  %56 = sub nsw i32 %40, %53
  %.not.i = icmp ult i32 %56, 256
  %isnotneg.i = icmp sgt i32 %56, -1
  %57 = sext i1 %isnotneg.i to i8
  %58 = trunc nuw i32 %56 to i8
  %.0.i = select i1 %.not.i, i8 %58, i8 %57
  store i8 %.0.i, ptr %38, align 1, !tbaa !40
  %59 = add nsw i32 %53, %41
  %.not.i30 = icmp ult i32 %59, 256
  %isnotneg.i31 = icmp sgt i32 %59, -1
  %60 = sext i1 %isnotneg.i31 to i8
  %61 = trunc nuw i32 %59 to i8
  %.0.i32 = select i1 %.not.i30, i8 %61, i8 %60
  store i8 %.0.i32, ptr %.02835, align 1, !tbaa !40
  %62 = add i8 %43, %54
  store i8 %62, ptr %42, align 1, !tbaa !40
  %63 = getelementptr inbounds nuw i8, ptr %.02835, i64 %1
  %64 = xor i32 %.036, 1
  %65 = add nuw nsw i32 %.02934, 1
  %exitcond.not = icmp eq i32 %65, 8
  br i1 %exitcond.not, label %.loopexit, label %34, !llvm.loop !50

.loopexit:                                        ; preds = %.ph.lver.orig, %34
  ret void
}